(dp1
S'output'
p2
S"<type 'exceptions.AttributeError'> 'Table' object has no attribute 'Reciever'"
p3
sS'layer'
p4
S'/home/manu/Downloads/web2py/applications/itws5/controllers/default.py'
p5
sS'code'
p6
S'# -*- coding: utf-8 -*-\n# this file is released under public domain and you can use without limitations\n\n#########################################################################\n## This is a sample controller\n## - index is the default action of any application\n## - user is required for authentication and authorization\n## - download is for downloading files uploaded in the db (does streaming)\n## - call exposes all registered services (none by default)\n#########################################################################\nfrom datetime import datetime,date\nimport time\ndef download():\n\treturn response.download(request,db)\ndef link():\n\treturn response.download(request,db,attachment=False)\ndef faq():\n    if session.login!="login":\n        session.login="login1"\n        session.uname=""\n    return dict(check1=session.login,check2=session.name,check3=session.photo)\ndef tables(): \n   return dict(tables=db().select(db.persons.ALL))\ndef helloa():\n\treturn dict()\ndef hs():\n\tif request.vars.forsub:\n\t\tname = request.vars[\'name\']\n\t\tcontact = request.vars[\'contact\']\n\t\temail = request.vars[\'email\']\n\t\tcomments = request.vars[\'comments\']\n\t\tdb.feedback.insert(sendername=name,phoneno=contact,emailadd=email,comments=comments)\n\t\tresponse.flash = T("your feedback recieved")\n\treturn dict(message=T(\'Feel free to contact us!\'),check1=session.login,check2=session.name,check3=session.photo,check4=session.uname)\ndef hello2():\n\treturn dict(check1=session.login,check2=session.name,check3=session.photo,check4=session.mapvar)\n\ndef echo():\n\treturn request.vars\ndef validater():\n    session.states="not"\n    rows=db(db.persons.id>0).select()\n    for i in rows:\n\t    if(i.username==session.uname):\n\t\t    if(i.password==session.passwo):\n\t\t\t    session.states="ok"\n##############################################################################\ndef search():\n    if session.uname == "":\n        redirect(URL("hello1"))\n\n#for finding the information of the person\n\n    rows4 = db(db.persons.username == session.queryname).select()\n    #print rows4\n    for i in rows4:\n        photo = i.photo\n\tdesignation = i.designation\n\tname = i.name\n    rows5 = db(db[designation].name == name).select()\n    for i in rows5:\n\tsec = i.sec\n    times = datetime.today().time()\n    days = time.strftime("%A")\t\n    rows6 = db(db[sec].dayn == days).select()\n    rows7 = db(db.periods.id > 0).select()\n    periodname = None\n    periodtype = None\n    for i in rows7:\n\tif i.T1 < times and i.T2 > times:\n\t    periodname = i.pname\n    #print periodname\n    schedule = ""\n    if periodname == "labs":\n\tperiodtype = "lab"\n    elif periodname is not None:\n        periodtype = "class"\n    if periodname is not None:\n        print periodname\n        var = rows6[0][periodname]\n\tif var is not "-":\n\t    var = var.split()\n\t    period = var[0]\n\t    print period\n\t    l = len(var)\n\t    schedule = ""\n\t    for i in range(1,l):\n\t        schedule = schedule + var[i] + " "\n\telse:\n\t    period = None\t\t\t\t\t\n    else:\n\tperiod = None\n    currdate = time.strftime("%x")\n    currtime = time.strftime("%X")\n    currdate = currdate[0:6]\n    curryear = time.strftime("%Y")\n    currdate = currdate + curryear\n    db(db.loca.tdate < currdate).delete()\n    location = None\n    places = db(db.loca.username == session.queryname).select()\n    for i in places:\n        if i.fdate < currdate and i.tdate > currdate:\n\t    location = i.place\n\telif i.fdate == currdate or i.tdate == currdate:\n\t    if i.fdate == currdate:\n\t        if i.ftime < currtime:\n\t\t    location = i.place\n\t    else:\n\t        if i.ttime > currtime:\n\t            location = i.place\n#for sending new messages\n    if request.vars.send:\n\t\n\tmessage = request.vars["message"]\n\tif  message == "":\n\t\tresponse.flash = T("You left some mandatory fields unfilled")\n\telse:\n\t\tif(message != None):\n\t\t\tdb.messages.insert(Sender = session.uname,Receiver = session.queryname,info =message)\n    \t\t\tresponse.flash = T("Your message was successfully sent")\n    if location!=None:\n        session.mapvar = location\n    else:\n\tsession.mapvar = "IIIT Hyderabad,Hyderabad"\n\n    return dict(check1=session.login,check2=session.name,check3=session.photo,check4=period,check5=schedule,check6=periodtype,check7=location,check8=photo,check9=name)\n\n##################################################################################################\n\t    \ndef hello1():\n    if session.login == "login1":\n\tresponse.flash = T("login to continue")\n    session.state = "login"\n\n#for finding a person\n    if request.vars.search:\n    \tsession.queryname = request.vars["getusername"]\n\tredirect(URL("search"))\n\n#for changing the location of any date specified by user\n    if request.vars.update:\n\tcurrdate = time.strftime("%x")\n        currtime = time.strftime("%X")\n        currdate = currdate[0:6]\n        curryear = time.strftime("%Y")\n        currdate = currdate + curryear\n\tplace = request.vars["place"]\n\tfdate = request.vars["fromdate"]\n\tftime = request.vars["fromtime"]\n\ttdate = request.vars["todate"]\n\tttime = request.vars["totime"]\n\tif place=="" or fdate=="" or ftime=="" or tdate=="" or ttime=="":\n\t\tresponse.flash = T("Fill in the details correctly")\n\telse:\n\t\tif place is not None:\n\t\t\tif fdate < currdate and tdate > currdate:\n\t\t    \t\tsession.location = place\n\t\t\telif fdate == currdate or tdate == currdate:\n\t\t    \t\tif fdate == currdate:\n\t\t        \t\tif ftime < currtime:\n\t\t\t    \t\t\tsession.location = place\n\t\t    \t\telse:\n\t\t        \t\tif ttime > currtime:\n\t\t\t    \t\t\tsession.location = place\n\t\t\t\n\t\t\tresponse.flash = T("Your changes stored")\n\t\t\tdb.loca.insert(username=session.uname,place=place,fdate=fdate,ftime=ftime,tdate=tdate,ttime=ttime)\n\n#for changing the profile pic\n    image_form = FORM(INPUT(_name=\'image_file\',_type=\'file\'))\n    if image_form.accepts(request.vars,formname=\'image_form\'):\n\timage = db.persons.photo.store(image_form.vars.image_file.file,image_form.vars.image_file.filename)\n\tid = db(db.persons.username==session.uname).update(photo=image)\n\tresponse.flash = T("Your Profile Pic Changed.Please Logout to see changes")\n    if session.state=="logout":\n\tsession.state="login"\n#for initializing the login state\n#login1 refers to logout\n#login refers to logged in\n\n    if session.login!="login":\n        session.login="login1"\n        session.uname=""\n\tsession.name=""\n\n#part for logging out\n\n    session.state=request.get_vars["a"]\n    if session.state == "logout":\n\tresponse.flash = T("logout successfull")\n\tresponse.mess="notput"\n\tsession.login = "login1"\n\tsession.logout = "true"\n\tsession.state2 = "logout"\n\tredirect(URL("hello1"))\n\n#for logging in\n\n    if request.vars.login1:\n\tsession.uname = request.vars["user"]\n\tsession.passwo = request.vars["pass"]\n\n#for checking the credentials\n\t\n\tvalidater()\n\n\n#redirecting user to his page\n\n\tif session.states == "ok":\n\t\trows = db(db.persons.username == session.uname).select()\n\t\tfor i in rows:\n\t\t\tsession.photo = i.photo\n\t\t\tsession.designation = i.designation\n\t\t\tsession.name = i.name\n\t\trows1 = db(db[session.designation].name == session.name).select()\n\t\tfor i in rows1:\n\t\t\tsession.sec = i.sec\n\t\tsession.times = datetime.today().time()\n\t\t#print session.times\n\t\t#print session.sec\n\t\tsession.days = time.strftime("%A")\t\n\t\trows2 = db(db[session.sec].dayn == session.days).select()\n\t\tprint rows2\n\t\trows3 = db(db.periods.id > 0).select()\n\n#for taking the current period of user\n\t\tsession.periodname = None\n\t\tfor i in rows3:\n\t\t\tif i.T1 < session.times and i.T2 > session.times:\n\t\t\t\tsession.periodname = i.pname\n\t\tif session.periodname == "labs":\n\t\t\tsession.periodtype = "lab"\n\t\telif session.periodname is not None:\n\t\t\tsession.periodtype = "class"\n\t\tif session.periodname is not None:\n\t\t\tsession.var = rows2[0][session.periodname]\n\t\t\tif session.var is not "-":\n\t\t\t\tsession.var = session.var.split()\n\t\t\t\tsession.period = session.var[0]\n\t\t\t\tprint session.period\n\t\t\t\tl = len(session.var)\n\t\t\t\tsession.schedule = ""\n\t\t\t\tfor i in range(1,l):\n\t\t\t\t\tsession.schedule = session.schedule + session.var[i] + " "\n\t\t\telse:\n\t\t\t  \tsession.period = None\n\t\t\t\t\t\n\t\telse:\n\t\t\tsession.period = None\n\n#for removing the outdated places of all users\n\tcurrdate = time.strftime("%x")\n\tcurrtime = time.strftime("%X")\n\tcurrdate = currdate[0:6]\n\tcurryear = time.strftime("%Y")\n\tcurrdate = currdate + curryear\n        db(db.loca.tdate < currdate).delete()\n    \n#for retrieving the specified location assigned by user\n\tsession.location = None\n\tplaces = db(db.loca.username == session.uname).select()\n\tfor i in places:\n    \t\tif i.fdate < currdate and i.tdate > currdate:\n\t\t    session.location = i.place\n\t\telif i.fdate == currdate or i.tdate == currdate:\n\t\t    if i.fdate == currdate:\n\t\t        if i.ftime < currtime:\n\t\t\t    session.location = i.place\n\t\t    else:\n\t\t        if i.ttime > currtime:\n\t\t\t    session.location = i.place\n#for displaying the messages\n\trows4 = db(db.messages.Receiver == session.uname).select()\n\tdb(db.messages.Reciever == session.uname).delete()\n        session.messages = []\n        for i in rows4:\n\t    session.messages.append(str(i.Sender) + "->sent a message: " + str(i.info) ) \n\n#flash messages\n\n\tif session.states=="ok":\n\t   response.flash=T("login successfull")\n\t   session.login = "login"\n\telse:\n\t   response.flash=T("wrong username/password")\n    if session.location!=None:\n        session.mapvar = session.location\n    else:\n\tsession.mapvar = "IIIT Hyderabad,Hyderabad"\n    return dict(check1=session.login,check2=session.name,check3=session.photo,check4=session.period,check5=session.schedule,check6=session.periodtype,check7=session.location,check8=session.designation,check9=session.messages,check10 = session.mapvar)\n\n######################################################\n\ndef names():\n    input = request.get_vars["start"]\n    #response.flash = (input)\n    #print input\n    if input is not "":\n    \trows =  db(db.persons.name.startswith(input)).select()\n    \tj = 0\n    \tlist = []\n\tlist1 = []\n\tlist2 = []\n    \tfor i in rows:\n\t\t#if j==0:\n            \ts =  i.name\n\t\tt = i.designation\n\t\tu = i.username\n\t    \tlist.append(s)\n\t\tlist1.append(t)\n\t\tlist2.append(u)\n        #else: \n\t #   s = s + "," + \'"\' + i.sname + \' " \' \n   # r = s.replace(",","\\n")\n    return dict(names=list,designation=list1,username=list2)\n\ndef index():\n    """\n    example action using the internationalization operator T and flash\n    rendered by views/default/index.html or views/generic.html\n\n    if you need a simple wiki simply replace the two lines below with:\n    return auth.wiki()\n    """\n    if session.login!="login":\n        session.login="login1"\n        session.uname=""\n    response.flash = T("Welcome to IIIT tracker!")\n    print session.uname\n    return dict(message=T(\'Hello IIIT\'),check1=session.login,check2=session.name,check3=session.photo,check4=session.period)\n\n\ndef user():\n    """\n    exposes:\n    http://..../[app]/default/user/login\n    http://..../[app]/default/user/logout\n    http://..../[app]/default/user/register\n    http://..../[app]/default/user/profile\n    http://..../[app]/default/user/retrieve_password\n    http://..../[app]/default/user/change_password\n    http://..../[app]/default/user/manage_users (requires membership in\n    use @auth.requires_login()\n        @auth.requires_membership(\'group name\')\n        @auth.requires_permission(\'read\',\'table name\',record_id)\n    to decorate functions that need access control\n    """\n    return dict(form=auth(),check1=session.login,check2=session.uname)\n\n@cache.action()\ndef download():\n    """\n    allows downloading of uploaded files\n    http://..../[app]/default/download/[filename]\n    """\n    return response.download(request, db)\n\n\ndef call():\n    """\n    exposes services. for example:\n    http://..../[app]/default/call/jsonrpc\n    decorate with @services.jsonrpc the functions to expose\n    supports xml, json, xmlrpc, jsonrpc, amfrpc, rss, csv\n    """\n    return service()\n\n\n@auth.requires_signature()\ndef data():\n    """\n    http://..../[app]/default/data/tables\n    http://..../[app]/default/data/create/[table]\n    http://..../[app]/default/data/read/[table]/[id]\n    http://..../[app]/default/data/update/[table]/[id]\n    http://..../[app]/default/data/delete/[table]/[id]\n    http://..../[app]/default/data/select/[table]\n    http://..../[app]/default/data/search/[table]\n    but URLs must be signed, i.e. linked with\n      A(\'table\',_href=URL(\'data/tables\',user_signature=True))\n    or with the signed load operator\n      LOAD(\'default\',\'data.load\',args=\'tables\',ajax=True,user_signature=True)\n    """\n    return dict(form=crud(),check1=session.login,check2=session.uname)\n\nresponse._vars=response._caller(hello1)\n'
p7
sS'snapshot'
p8
(dp9
sS'traceback'
p10
S'Traceback (most recent call last):\n  File "/home/manu/Downloads/web2py/gluon/restricted.py", line 217, in restricted\n    exec ccode in environment\n  File "/home/manu/Downloads/web2py/applications/itws5/controllers/default.py", line 387, in <module>\n  File "/home/manu/Downloads/web2py/gluon/globals.py", line 385, in <lambda>\n    self._caller = lambda f: f()\n  File "/home/manu/Downloads/web2py/applications/itws5/controllers/default.py", line 275, in hello1\n    db(db.messages.Reciever == session.uname).delete()\n  File "/home/manu/Downloads/web2py/gluon/dal.py", line 8912, in __getitem__\n    return ogetattr(self, str(key))\nAttributeError: \'Table\' object has no attribute \'Reciever\'\n'
p11
s.